target datalayout = "e-m:e-p270:32:32-p271:32:32-p272:64:64-i64:64-i128:128-f80:128-n8:16:32:64-S128"
target triple = "x86_64-pc-linux-gnu"

%struct.evp_pkey_ctx_st = type { i32, ptr, ptr, ptr, ptr, %union.anon, %struct.anon.4, ptr, ptr, ptr, i32, i32, ptr, ptr, ptr, ptr, ptr, i8, ptr }
%union.anon = type { %struct.anon.0 }
%struct.anon.0 = type { ptr, ptr }
%struct.anon.4 = type { ptr, ptr, i64, i8 }
%struct.evp_keymgmt_st = type { i32, i32, i32, ptr, ptr, ptr, %struct.CRYPTO_REF_COUNT, ptr, ptr, ptr, ptr, ptr, ptr, ptr, ptr, ptr, ptr, ptr, ptr, ptr, ptr, ptr, ptr, ptr, ptr, ptr, ptr, ptr, ptr, ptr, ptr, ptr, ptr }
%struct.CRYPTO_REF_COUNT = type { i32 }
%struct.anon = type { ptr }
%struct.evp_pkey_method_st = type { i32, i32, ptr, ptr, ptr, ptr, ptr, ptr, ptr, ptr, ptr, ptr, ptr, ptr, ptr, ptr, ptr, ptr, ptr, ptr, ptr, ptr, ptr, ptr, ptr, ptr, ptr, ptr, ptr, ptr, ptr, ptr, ptr }

@.str = private unnamed_addr constant [33 x i8] c"../openssl/crypto/evp/pmeth_gn.c\00", align 1
@__func__.gen_init = private unnamed_addr constant [9 x i8] c"gen_init\00", align 1

; Function Attrs: nounwind uwtable
define internal i32 @gen_init(ptr noundef %0, i32 noundef %1) #0 {
  %3 = alloca ptr, align 8
  %4 = alloca i32, align 4
  %5 = alloca i32, align 4
  store ptr %0, ptr %3, align 8, !tbaa !3
  store i32 %1, ptr %4, align 4, !tbaa !8
  call void @llvm.lifetime.start.p0(i64 4, ptr %5) #4
  store i32 0, ptr %5, align 4, !tbaa !8
  %6 = load ptr, ptr %3, align 8, !tbaa !3
  %7 = icmp eq ptr %6, null
  br i1 %7, label %8, label %9

8:                                                ; preds = %2
  br label %126

9:                                                ; preds = %2
  %10 = load ptr, ptr %3, align 8, !tbaa !3
  call void @evp_pkey_ctx_free_old_ops(ptr noundef %10)
  %11 = load i32, ptr %4, align 4, !tbaa !8
  %12 = load ptr, ptr %3, align 8, !tbaa !3
  %13 = getelementptr inbounds nuw %struct.evp_pkey_ctx_st, ptr %12, i32 0, i32 0
  store i32 %11, ptr %13, align 8, !tbaa !10
  %14 = load ptr, ptr %3, align 8, !tbaa !3
  %15 = getelementptr inbounds nuw %struct.evp_pkey_ctx_st, ptr %14, i32 0, i32 4
  %16 = load ptr, ptr %15, align 8, !tbaa !22
  %17 = icmp eq ptr %16, null
  br i1 %17, label %25, label %18

18:                                               ; preds = %9
  %19 = load ptr, ptr %3, align 8, !tbaa !3
  %20 = getelementptr inbounds nuw %struct.evp_pkey_ctx_st, ptr %19, i32 0, i32 4
  %21 = load ptr, ptr %20, align 8, !tbaa !22
  %22 = getelementptr inbounds nuw %struct.evp_keymgmt_st, ptr %21, i32 0, i32 13
  %23 = load ptr, ptr %22, align 8, !tbaa !23
  %24 = icmp eq ptr %23, null
  br i1 %24, label %25, label %26

25:                                               ; preds = %18, %9
  br label %53

26:                                               ; preds = %18
  %27 = load i32, ptr %4, align 4, !tbaa !8
  switch i32 %27, label %44 [
    i32 2, label %28
    i32 4, label %36
  ]

28:                                               ; preds = %26
  %29 = load ptr, ptr %3, align 8, !tbaa !3
  %30 = getelementptr inbounds nuw %struct.evp_pkey_ctx_st, ptr %29, i32 0, i32 4
  %31 = load ptr, ptr %30, align 8, !tbaa !22
  %32 = call ptr @evp_keymgmt_gen_init(ptr noundef %31, i32 noundef 132, ptr noundef null)
  %33 = load ptr, ptr %3, align 8, !tbaa !3
  %34 = getelementptr inbounds nuw %struct.evp_pkey_ctx_st, ptr %33, i32 0, i32 5
  %35 = getelementptr inbounds nuw %struct.anon, ptr %34, i32 0, i32 0
  store ptr %32, ptr %35, align 8, !tbaa !27
  br label %44

36:                                               ; preds = %26
  %37 = load ptr, ptr %3, align 8, !tbaa !3
  %38 = getelementptr inbounds nuw %struct.evp_pkey_ctx_st, ptr %37, i32 0, i32 4
  %39 = load ptr, ptr %38, align 8, !tbaa !22
  %40 = call ptr @evp_keymgmt_gen_init(ptr noundef %39, i32 noundef 3, ptr noundef null)
  %41 = load ptr, ptr %3, align 8, !tbaa !3
  %42 = getelementptr inbounds nuw %struct.evp_pkey_ctx_st, ptr %41, i32 0, i32 5
  %43 = getelementptr inbounds nuw %struct.anon, ptr %42, i32 0, i32 0
  store ptr %40, ptr %43, align 8, !tbaa !27
  br label %44

44:                                               ; preds = %26, %36, %28
  %45 = load ptr, ptr %3, align 8, !tbaa !3
  %46 = getelementptr inbounds nuw %struct.evp_pkey_ctx_st, ptr %45, i32 0, i32 5
  %47 = getelementptr inbounds nuw %struct.anon, ptr %46, i32 0, i32 0
  %48 = load ptr, ptr %47, align 8, !tbaa !27
  %49 = icmp eq ptr %48, null
  br i1 %49, label %50, label %51

50:                                               ; preds = %44
  call void @ERR_new()
  call void @ERR_set_debug(ptr noundef @.str, i32 noundef 52, ptr noundef @__func__.gen_init)
  call void (i32, i32, ptr, ...) @ERR_set_error(i32 noundef 6, i32 noundef 134, ptr noundef null)
  br label %52

51:                                               ; preds = %44
  store i32 1, ptr %5, align 4, !tbaa !8
  br label %52

52:                                               ; preds = %51, %50
  br label %114

53:                                               ; preds = %25
  %54 = load ptr, ptr %3, align 8, !tbaa !3
  %55 = getelementptr inbounds nuw %struct.evp_pkey_ctx_st, ptr %54, i32 0, i32 12
  %56 = load ptr, ptr %55, align 8, !tbaa !28
  %57 = icmp eq ptr %56, null
  br i1 %57, label %78, label %58

58:                                               ; preds = %53
  %59 = load i32, ptr %4, align 4, !tbaa !8
  %60 = icmp eq i32 %59, 2
  br i1 %60, label %61, label %68

61:                                               ; preds = %58
  %62 = load ptr, ptr %3, align 8, !tbaa !3
  %63 = getelementptr inbounds nuw %struct.evp_pkey_ctx_st, ptr %62, i32 0, i32 12
  %64 = load ptr, ptr %63, align 8, !tbaa !28
  %65 = getelementptr inbounds nuw %struct.evp_pkey_method_st, ptr %64, i32 0, i32 6
  %66 = load ptr, ptr %65, align 8, !tbaa !29
  %67 = icmp eq ptr %66, null
  br i1 %67, label %78, label %68

68:                                               ; preds = %61, %58
  %69 = load i32, ptr %4, align 4, !tbaa !8
  %70 = icmp eq i32 %69, 4
  br i1 %70, label %71, label %79

71:                                               ; preds = %68
  %72 = load ptr, ptr %3, align 8, !tbaa !3
  %73 = getelementptr inbounds nuw %struct.evp_pkey_ctx_st, ptr %72, i32 0, i32 12
  %74 = load ptr, ptr %73, align 8, !tbaa !28
  %75 = getelementptr inbounds nuw %struct.evp_pkey_method_st, ptr %74, i32 0, i32 8
  %76 = load ptr, ptr %75, align 8, !tbaa !31
  %77 = icmp eq ptr %76, null
  br i1 %77, label %78, label %79

78:                                               ; preds = %71, %61, %53
  br label %126

79:                                               ; preds = %71, %68
  store i32 1, ptr %5, align 4, !tbaa !8
  %80 = load i32, ptr %4, align 4, !tbaa !8
  switch i32 %80, label %113 [
    i32 2, label %81
    i32 4, label %97
  ]

81:                                               ; preds = %79
  %82 = load ptr, ptr %3, align 8, !tbaa !3
  %83 = getelementptr inbounds nuw %struct.evp_pkey_ctx_st, ptr %82, i32 0, i32 12
  %84 = load ptr, ptr %83, align 8, !tbaa !28
  %85 = getelementptr inbounds nuw %struct.evp_pkey_method_st, ptr %84, i32 0, i32 5
  %86 = load ptr, ptr %85, align 8, !tbaa !32
  %87 = icmp ne ptr %86, null
  br i1 %87, label %88, label %96

88:                                               ; preds = %81
  %89 = load ptr, ptr %3, align 8, !tbaa !3
  %90 = getelementptr inbounds nuw %struct.evp_pkey_ctx_st, ptr %89, i32 0, i32 12
  %91 = load ptr, ptr %90, align 8, !tbaa !28
  %92 = getelementptr inbounds nuw %struct.evp_pkey_method_st, ptr %91, i32 0, i32 5
  %93 = load ptr, ptr %92, align 8, !tbaa !32
  %94 = load ptr, ptr %3, align 8, !tbaa !3
  %95 = call i32 %93(ptr noundef %94)
  store i32 %95, ptr %5, align 4, !tbaa !8
  br label %96

96:                                               ; preds = %88, %81
  br label %113

97:                                               ; preds = %79
  %98 = load ptr, ptr %3, align 8, !tbaa !3
  %99 = getelementptr inbounds nuw %struct.evp_pkey_ctx_st, ptr %98, i32 0, i32 12
  %100 = load ptr, ptr %99, align 8, !tbaa !28
  %101 = getelementptr inbounds nuw %struct.evp_pkey_method_st, ptr %100, i32 0, i32 7
  %102 = load ptr, ptr %101, align 8, !tbaa !33
  %103 = icmp ne ptr %102, null
  br i1 %103, label %104, label %112

104:                                              ; preds = %97
  %105 = load ptr, ptr %3, align 8, !tbaa !3
  %106 = getelementptr inbounds nuw %struct.evp_pkey_ctx_st, ptr %105, i32 0, i32 12
  %107 = load ptr, ptr %106, align 8, !tbaa !28
  %108 = getelementptr inbounds nuw %struct.evp_pkey_method_st, ptr %107, i32 0, i32 7
  %109 = load ptr, ptr %108, align 8, !tbaa !33
  %110 = load ptr, ptr %3, align 8, !tbaa !3
  %111 = call i32 %109(ptr noundef %110)
  store i32 %111, ptr %5, align 4, !tbaa !8
  br label %112

112:                                              ; preds = %104, %97
  br label %113

113:                                              ; preds = %79, %112, %96
  br label %114

114:                                              ; preds = %126, %113, %52
  %115 = load i32, ptr %5, align 4, !tbaa !8
  %116 = icmp sle i32 %115, 0
  br i1 %116, label %117, label %124

117:                                              ; preds = %114
  %118 = load ptr, ptr %3, align 8, !tbaa !3
  %119 = icmp ne ptr %118, null
  br i1 %119, label %120, label %124

120:                                              ; preds = %117
  %121 = load ptr, ptr %3, align 8, !tbaa !3
  call void @evp_pkey_ctx_free_old_ops(ptr noundef %121)
  %122 = load ptr, ptr %3, align 8, !tbaa !3
  %123 = getelementptr inbounds nuw %struct.evp_pkey_ctx_st, ptr %122, i32 0, i32 0
  store i32 0, ptr %123, align 8, !tbaa !10
  br label %124

124:                                              ; preds = %120, %117, %114
  %125 = load i32, ptr %5, align 4, !tbaa !8
  call void @llvm.lifetime.end.p0(i64 4, ptr %5) #4
  ret i32 %125

126:                                              ; preds = %78, %8
  call void @ERR_new()
  call void @ERR_set_debug(ptr noundef @.str, i32 noundef 89, ptr noundef @__func__.gen_init)
  call void (i32, i32, ptr, ...) @ERR_set_error(i32 noundef 6, i32 noundef 150, ptr noundef null)
  store i32 -2, ptr %5, align 4, !tbaa !8
  br label %114
}