; Function Attrs: nounwind uwtable
define internal fastcc i32 @gen_init(ptr noundef %0, i32 noundef range(i32 2, 5) %1) unnamed_addr #0 {
  %3 = icmp eq ptr %0, null
  br i1 %3, label %50, label %4

4:                                                ; preds = %2
  tail call void @evp_pkey_ctx_free_old_ops(ptr noundef nonnull %0) #6
  store i32 %1, ptr %0, align 8, !tbaa !3
  %5 = getelementptr inbounds nuw i8, ptr %0, i64 32
  %6 = load ptr, ptr %5, align 8, !tbaa !19
  %7 = icmp eq ptr %6, null
  br i1 %7, label %23, label %8

8:                                                ; preds = %4
  %9 = getelementptr inbounds nuw i8, ptr %6, i64 96
  %10 = load ptr, ptr %9, align 8, !tbaa !20
  %11 = icmp eq ptr %10, null
  br i1 %11, label %23, label %12

12:                                               ; preds = %8
  switch i32 %1, label %._crit_edge [
    i32 2, label %13
    i32 4, label %16
  ]

._crit_edge:                                      ; preds = %12
  %.phi.trans.insert = getelementptr inbounds nuw i8, ptr %0, i64 40
  %.pre = load ptr, ptr %.phi.trans.insert, align 8, !tbaa !24
  br label %19

13:                                               ; preds = %12
  %14 = tail call ptr @evp_keymgmt_gen_init(ptr noundef nonnull %6, i32 noundef 132, ptr noundef null) #6
  %15 = getelementptr inbounds nuw i8, ptr %0, i64 40
  store ptr %14, ptr %15, align 8, !tbaa !24
  br label %19

16:                                               ; preds = %12
  %17 = tail call ptr @evp_keymgmt_gen_init(ptr noundef nonnull %6, i32 noundef 3, ptr noundef null) #6
  %18 = getelementptr inbounds nuw i8, ptr %0, i64 40
  store ptr %17, ptr %18, align 8, !tbaa !24
  br label %19

19:                                               ; preds = %._crit_edge, %16, %13
  %20 = phi ptr [ %.pre, %._crit_edge ], [ %17, %16 ], [ %14, %13 ]
  %21 = icmp eq ptr %20, null
  br i1 %21, label %22, label %.thread

22:                                               ; preds = %19
  tail call void @ERR_new() #6
  tail call void @ERR_set_debug(ptr noundef nonnull @.str, i32 noundef 52, ptr noundef nonnull @__func__.gen_init) #6
  tail call void (i32, i32, ptr, ...) @ERR_set_error(i32 noundef 6, i32 noundef 134, ptr noundef null) #6
  br label %46

23:                                               ; preds = %4, %8
  %24 = getelementptr inbounds nuw i8, ptr %0, i64 120
  %25 = load ptr, ptr %24, align 8, !tbaa !25
  %26 = icmp eq ptr %25, null
  br i1 %26, label %50, label %27

27:                                               ; preds = %23
  switch i32 %1, label %.thread [
    i32 2, label %28
    i32 4, label %32
  ]

28:                                               ; preds = %27
  %29 = getelementptr inbounds nuw i8, ptr %25, i64 40
  %30 = load ptr, ptr %29, align 8, !tbaa !26
  %31 = icmp eq ptr %30, null
  br i1 %31, label %50, label %36

32:                                               ; preds = %27
  %33 = getelementptr inbounds nuw i8, ptr %25, i64 56
  %34 = load ptr, ptr %33, align 8, !tbaa !28
  %35 = icmp eq ptr %34, null
  br i1 %35, label %50, label %41

36:                                               ; preds = %28
  %37 = getelementptr inbounds nuw i8, ptr %25, i64 32
  %38 = load ptr, ptr %37, align 8, !tbaa !29
  %.not34 = icmp eq ptr %38, null
  br i1 %.not34, label %.thread, label %39

39:                                               ; preds = %36
  %40 = tail call i32 %38(ptr noundef nonnull %0) #6
  br label %46

41:                                               ; preds = %32
  %42 = getelementptr inbounds nuw i8, ptr %25, i64 48
  %43 = load ptr, ptr %42, align 8, !tbaa !30
  %.not = icmp eq ptr %43, null
  br i1 %.not, label %.thread, label %44

44:                                               ; preds = %41
  %45 = tail call i32 %43(ptr noundef nonnull %0) #6
  br label %46

46:                                               ; preds = %39, %44, %22, %50
  %.0 = phi i32 [ -2, %50 ], [ %45, %44 ], [ %40, %39 ], [ 0, %22 ]
  %47 = icmp slt i32 %.0, 1
  %48 = icmp ne ptr %0, null
  %or.cond = and i1 %48, %47
  br i1 %or.cond, label %49, label %.thread

49:                                               ; preds = %46
  tail call void @evp_pkey_ctx_free_old_ops(ptr noundef nonnull %0) #6
  store i32 0, ptr %0, align 8, !tbaa !3
  br label %.thread

.thread:                                          ; preds = %27, %19, %36, %41, %49, %46
  %.037 = phi i32 [ %.0, %49 ], [ %.0, %46 ], [ 1, %41 ], [ 1, %36 ], [ 1, %19 ], [ 1, %27 ]
  ret i32 %.037

50:                                               ; preds = %23, %28, %32, %2
  tail call void @ERR_new() #6
  tail call void @ERR_set_debug(ptr noundef nonnull @.str, i32 noundef 89, ptr noundef nonnull @__func__.gen_init) #6
  tail call void (i32, i32, ptr, ...) @ERR_set_error(i32 noundef 6, i32 noundef 150, ptr noundef null) #6
  br label %46
}